target datalayout = "e-m:e-p270:32:32-p271:32:32-p272:64:64-i64:64-i128:128-f80:128-n8:16:32:64-S128"
target triple = "x86_64-pc-linux-gnu"

%struct.SDL_VideoDevice = type { ptr, ptr, ptr, ptr, ptr, ptr, ptr, ptr, ptr, ptr, ptr, ptr, ptr, ptr, ptr, ptr, ptr, ptr, ptr, ptr, ptr, ptr, ptr, ptr, ptr, ptr, ptr, ptr, ptr, ptr, ptr, ptr, ptr, ptr, ptr, ptr, ptr, ptr, ptr, ptr, ptr, ptr, ptr, ptr, ptr, ptr, ptr, ptr, ptr, ptr, ptr, ptr, ptr, ptr, ptr, ptr, ptr, ptr, ptr, ptr, ptr, ptr, ptr, ptr, ptr, ptr, ptr, ptr, ptr, ptr, ptr, ptr, ptr, ptr, ptr, ptr, ptr, ptr, ptr, ptr, ptr, ptr, ptr, ptr, ptr, ptr, ptr, ptr, ptr, ptr, ptr, ptr, ptr, ptr, ptr, ptr, ptr, i64, i8, i8, i8, ptr, i32, ptr, %struct.SDL_Rect, ptr, ptr, i32, ptr, ptr, ptr, ptr, i64, ptr, i8, i32, i32, %struct.anon, ptr, ptr, ptr, ptr, ptr, ptr, %struct.SDL_AtomicInt, %struct.SDL_AtomicInt, i8, %struct.anon.0, ptr, ptr, ptr, ptr, ptr }
%struct.SDL_Rect = type { i32, i32, i32, i32 }
%struct.anon = type { i32, i32, i32, i32, i32, i32, i32, i32, i32, i32, i32, i32, i32, i32, i32, i32, i32, i32, i32, i32, i32, i32, i32, i32, i32, i32, i32, i32, i32, [256 x i8], ptr }
%struct.SDL_AtomicInt = type { i32 }
%struct.anon.0 = type { ptr, ptr, i32, [256 x i8], ptr }

; Function Attrs: nounwind uwtable
define hidden void @SDL_FreeClipboardMimeTypes(ptr noundef %0) #0 {
  %2 = alloca ptr, align 8
  %3 = alloca i64, align 8
  store ptr %0, ptr %2, align 8
  %4 = load ptr, ptr %2, align 8
  %5 = getelementptr inbounds nuw %struct.SDL_VideoDevice, ptr %4, i32 0, i32 111
  %6 = load ptr, ptr %5, align 8
  %7 = icmp ne ptr %6, null
  br i1 %7, label %8, label %34

8:                                                ; preds = %1
  call void @llvm.lifetime.start.p0(i64 8, ptr %3) #5
  store i64 0, ptr %3, align 8
  br label %9

9:                                                ; preds = %23, %8
  %10 = load i64, ptr %3, align 8
  %11 = load ptr, ptr %2, align 8
  %12 = getelementptr inbounds nuw %struct.SDL_VideoDevice, ptr %11, i32 0, i32 112
  %13 = load i64, ptr %12, align 8
  %14 = icmp ult i64 %10, %13
  br i1 %14, label %16, label %15

15:                                               ; preds = %9
  call void @llvm.lifetime.end.p0(i64 8, ptr %3) #5
  br label %26

16:                                               ; preds = %9
  %17 = load ptr, ptr %2, align 8
  %18 = getelementptr inbounds nuw %struct.SDL_VideoDevice, ptr %17, i32 0, i32 111
  %19 = load ptr, ptr %18, align 8
  %20 = load i64, ptr %3, align 8
  %21 = getelementptr inbounds nuw ptr, ptr %19, i64 %20
  %22 = load ptr, ptr %21, align 8
  call void @SDL_free_REAL(ptr noundef %22)
  br label %23

23:                                               ; preds = %16
  %24 = load i64, ptr %3, align 8
  %25 = add i64 %24, 1
  store i64 %25, ptr %3, align 8
  br label %9, !llvm.loop !3

26:                                               ; preds = %15
  %27 = load ptr, ptr %2, align 8
  %28 = getelementptr inbounds nuw %struct.SDL_VideoDevice, ptr %27, i32 0, i32 111
  %29 = load ptr, ptr %28, align 8
  call void @SDL_free_REAL(ptr noundef %29)
  %30 = load ptr, ptr %2, align 8
  %31 = getelementptr inbounds nuw %struct.SDL_VideoDevice, ptr %30, i32 0, i32 111
  store ptr null, ptr %31, align 8
  %32 = load ptr, ptr %2, align 8
  %33 = getelementptr inbounds nuw %struct.SDL_VideoDevice, ptr %32, i32 0, i32 112
  store i64 0, ptr %33, align 8
  br label %34

34:                                               ; preds = %26, %1
  ret void
}

; Function Attrs: nounwind uwtable
define hidden zeroext i1 @SDL_SaveClipboardMimeTypes(ptr noundef %0, i64 noundef %1) #0 {
  %3 = alloca i1, align 1
  %4 = alloca ptr, align 8
  %5 = alloca i64, align 8
  %6 = alloca ptr, align 8
  %7 = alloca i64, align 8
  %8 = alloca i64, align 8
  %9 = alloca i32, align 4
  store ptr %0, ptr %4, align 8
  store i64 %1, ptr %5, align 8
  call void @llvm.lifetime.start.p0(i64 8, ptr %6) #5
  %10 = call ptr @SDL_GetVideoDevice()
  store ptr %10, ptr %6, align 8
  %11 = load ptr, ptr %6, align 8
  call void @SDL_FreeClipboardMimeTypes(ptr noundef %11)
  %12 = load ptr, ptr %4, align 8
  %13 = icmp ne ptr %12, null
  br i1 %13, label %14, label %72

14:                                               ; preds = %2
  %15 = load i64, ptr %5, align 8
  %16 = icmp ugt i64 %15, 0
  br i1 %16, label %17, label %72

17:                                               ; preds = %14
  call void @llvm.lifetime.start.p0(i64 8, ptr %7) #5
  store i64 0, ptr %7, align 8
  %18 = load i64, ptr %5, align 8
  %19 = mul i64 %18, 8
  %20 = call noalias ptr @SDL_malloc_REAL(i64 noundef %19)
  %21 = load ptr, ptr %6, align 8
  %22 = getelementptr inbounds nuw %struct.SDL_VideoDevice, ptr %21, i32 0, i32 111
  store ptr %20, ptr %22, align 8
  %23 = load ptr, ptr %6, align 8
  %24 = getelementptr inbounds nuw %struct.SDL_VideoDevice, ptr %23, i32 0, i32 111
  %25 = load ptr, ptr %24, align 8
  %26 = icmp ne ptr %25, null
  br i1 %26, label %27, label %59

27:                                               ; preds = %17
  call void @llvm.lifetime.start.p0(i64 8, ptr %8) #5
  store i64 0, ptr %8, align 8
  br label %28

28:                                               ; preds = %55, %27
  %29 = load i64, ptr %8, align 8
  %30 = load i64, ptr %5, align 8
  %31 = icmp ult i64 %29, %30
  br i1 %31, label %33, label %32

32:                                               ; preds = %28
  call void @llvm.lifetime.end.p0(i64 8, ptr %8) #5
  br label %58

33:                                               ; preds = %28
  %34 = load ptr, ptr %4, align 8
  %35 = load i64, ptr %8, align 8
  %36 = getelementptr inbounds nuw ptr, ptr %34, i64 %35
  %37 = load ptr, ptr %36, align 8
  %38 = call noalias ptr @SDL_strdup_REAL(ptr noundef %37)
  %39 = load ptr, ptr %6, align 8
  %40 = getelementptr inbounds nuw %struct.SDL_VideoDevice, ptr %39, i32 0, i32 111
  %41 = load ptr, ptr %40, align 8
  %42 = load i64, ptr %8, align 8
  %43 = getelementptr inbounds nuw ptr, ptr %41, i64 %42
  store ptr %38, ptr %43, align 8
  %44 = load ptr, ptr %6, align 8
  %45 = getelementptr inbounds nuw %struct.SDL_VideoDevice, ptr %44, i32 0, i32 111
  %46 = load ptr, ptr %45, align 8
  %47 = load i64, ptr %8, align 8
  %48 = getelementptr inbounds nuw ptr, ptr %46, i64 %47
  %49 = load ptr, ptr %48, align 8
  %50 = icmp ne ptr %49, null
  br i1 %50, label %51, label %54

51:                                               ; preds = %33
  %52 = load i64, ptr %7, align 8
  %53 = add i64 %52, 1
  store i64 %53, ptr %7, align 8
  br label %54

54:                                               ; preds = %51, %33
  br label %55

55:                                               ; preds = %54
  %56 = load i64, ptr %8, align 8
  %57 = add i64 %56, 1
  store i64 %57, ptr %8, align 8
  br label %28, !llvm.loop !5

58:                                               ; preds = %32
  br label %59

59:                                               ; preds = %58, %17
  %60 = load i64, ptr %7, align 8
  %61 = load i64, ptr %5, align 8
  %62 = icmp ult i64 %60, %61
  br i1 %62, label %63, label %65

63:                                               ; preds = %59
  %64 = load ptr, ptr %6, align 8
  call void @SDL_FreeClipboardMimeTypes(ptr noundef %64)
  store i1 false, ptr %3, align 1
  store i32 1, ptr %9, align 4
  br label %69

65:                                               ; preds = %59
  %66 = load i64, ptr %5, align 8
  %67 = load ptr, ptr %6, align 8
  %68 = getelementptr inbounds nuw %struct.SDL_VideoDevice, ptr %67, i32 0, i32 112
  store i64 %66, ptr %68, align 8
  store i32 0, ptr %9, align 4
  br label %69

69:                                               ; preds = %65, %63
  call void @llvm.lifetime.end.p0(i64 8, ptr %7) #5
  %70 = load i32, ptr %9, align 4
  switch i32 %70, label %73 [
    i32 0, label %71
  ]

71:                                               ; preds = %69
  br label %72

72:                                               ; preds = %71, %14, %2
  store i1 true, ptr %3, align 1
  store i32 1, ptr %9, align 4
  br label %73

73:                                               ; preds = %72, %69
  call void @llvm.lifetime.end.p0(i64 8, ptr %6) #5
  %74 = load i1, ptr %3, align 1
  ret i1 %74
}